target datalayout = "e-m:e-p270:32:32-p271:32:32-p272:64:64-i64:64-i128:128-f80:128-n8:16:32:64-S128"
target triple = "x86_64-pc-linux-gnu"

%"class.icu_77::FormattedStringBuilder" = type { i8, %"union.icu_77::FormattedStringBuilder::ValueOrHeapArray", %"union.icu_77::FormattedStringBuilder::ValueOrHeapArray.0", i32, i32 }
%"union.icu_77::FormattedStringBuilder::ValueOrHeapArray" = type { %struct.anon, [64 x i8] }
%struct.anon = type { ptr, i32 }
%"union.icu_77::FormattedStringBuilder::ValueOrHeapArray.0" = type { %struct.anon.1, [24 x i8] }
%struct.anon.1 = type { ptr, i32 }

; Function Attrs: inlinehint mustprogress nounwind uwtable
define linkonce_odr noundef ptr @_ZNK6icu_7722FormattedStringBuilder10getCharPtrEv(ptr noundef nonnull align 8 dereferenceable(136) %0) #5 comdat align 2 {
  %2 = alloca ptr, align 8
  store ptr %0, ptr %2, align 8, !tbaa !3
  %3 = load ptr, ptr %2, align 8
  %4 = getelementptr inbounds nuw %"class.icu_77::FormattedStringBuilder", ptr %3, i32 0, i32 0
  %5 = load i8, ptr %4, align 8, !tbaa !8, !range !14, !noundef !15
  %6 = trunc i8 %5 to i1
  br i1 %6, label %7, label %11

7:                                                ; preds = %1
  %8 = getelementptr inbounds nuw %"class.icu_77::FormattedStringBuilder", ptr %3, i32 0, i32 1
  %9 = getelementptr inbounds nuw %struct.anon, ptr %8, i32 0, i32 0
  %10 = load ptr, ptr %9, align 8, !tbaa !16
  br label %14

11:                                               ; preds = %1
  %12 = getelementptr inbounds nuw %"class.icu_77::FormattedStringBuilder", ptr %3, i32 0, i32 1
  %13 = getelementptr inbounds [40 x i16], ptr %12, i64 0, i64 0
  br label %14

14:                                               ; preds = %11, %7
  %15 = phi ptr [ %10, %7 ], [ %13, %11 ]
  ret ptr %15
}

; Function Attrs: mustprogress uwtable
define noundef i32 @_ZNK6icu_7722FormattedStringBuilder15codePointBeforeEi(ptr noundef nonnull align 8 dereferenceable(136) %0, i32 noundef %1) #3 align 2 {
  %3 = alloca ptr, align 8
  %4 = alloca i32, align 4
  %5 = alloca i32, align 4
  %6 = alloca i32, align 4
  %7 = alloca i16, align 2
  store ptr %0, ptr %3, align 8, !tbaa !3
  store i32 %1, ptr %4, align 4, !tbaa !17
  %8 = load ptr, ptr %3, align 8
  call void @llvm.lifetime.start.p0(i64 4, ptr %5) #11
  %9 = load i32, ptr %4, align 4, !tbaa !17
  store i32 %9, ptr %5, align 4, !tbaa !17
  br label %10

10:                                               ; preds = %2
  %11 = call noundef ptr @_ZNK6icu_7722FormattedStringBuilder10getCharPtrEv(ptr noundef nonnull align 8 dereferenceable(136) %8)
  %12 = getelementptr inbounds nuw %"class.icu_77::FormattedStringBuilder", ptr %8, i32 0, i32 3
  %13 = load i32, ptr %12, align 8, !tbaa !12
  %14 = sext i32 %13 to i64
  %15 = getelementptr inbounds i16, ptr %11, i64 %14
  %16 = load i32, ptr %5, align 4, !tbaa !17
  %17 = add nsw i32 %16, -1
  store i32 %17, ptr %5, align 4, !tbaa !17
  %18 = sext i32 %17 to i64
  %19 = getelementptr inbounds i16, ptr %15, i64 %18
  %20 = load i16, ptr %19, align 2, !tbaa !25
  %21 = zext i16 %20 to i32
  %22 = and i32 %21, -1024
  %23 = icmp eq i32 %22, 56320
  br i1 %23, label %24, label %44

24:                                               ; preds = %10
  %25 = load i32, ptr %5, align 4, !tbaa !17
  %26 = icmp sgt i32 %25, 0
  br i1 %26, label %27, label %44

27:                                               ; preds = %24
  %28 = call noundef ptr @_ZNK6icu_7722FormattedStringBuilder10getCharPtrEv(ptr noundef nonnull align 8 dereferenceable(136) %8)
  %29 = getelementptr inbounds nuw %"class.icu_77::FormattedStringBuilder", ptr %8, i32 0, i32 3
  %30 = load i32, ptr %29, align 8, !tbaa !12
  %31 = sext i32 %30 to i64
  %32 = getelementptr inbounds i16, ptr %28, i64 %31
  %33 = load i32, ptr %5, align 4, !tbaa !17
  %34 = sub nsw i32 %33, 1
  %35 = sext i32 %34 to i64
  %36 = getelementptr inbounds i16, ptr %32, i64 %35
  %37 = load i16, ptr %36, align 2, !tbaa !25
  %38 = zext i16 %37 to i32
  %39 = and i32 %38, -1024
  %40 = icmp eq i32 %39, 55296
  br i1 %40, label %41, label %44

41:                                               ; preds = %27
  %42 = load i32, ptr %5, align 4, !tbaa !17
  %43 = add nsw i32 %42, -1
  store i32 %43, ptr %5, align 4, !tbaa !17
  br label %44

44:                                               ; preds = %41, %27, %24, %10
  br label %45

45:                                               ; preds = %44
  br label %46

46:                                               ; preds = %45
  call void @llvm.lifetime.start.p0(i64 4, ptr %6) #11
  br label %47

47:                                               ; preds = %46
  %48 = call noundef ptr @_ZNK6icu_7722FormattedStringBuilder10getCharPtrEv(ptr noundef nonnull align 8 dereferenceable(136) %8)
  %49 = getelementptr inbounds nuw %"class.icu_77::FormattedStringBuilder", ptr %8, i32 0, i32 3
  %50 = load i32, ptr %49, align 8, !tbaa !12
  %51 = sext i32 %50 to i64
  %52 = getelementptr inbounds i16, ptr %48, i64 %51
  %53 = load i32, ptr %5, align 4, !tbaa !17
  %54 = sext i32 %53 to i64
  %55 = getelementptr inbounds i16, ptr %52, i64 %54
  %56 = load i16, ptr %55, align 2, !tbaa !25
  %57 = zext i16 %56 to i32
  store i32 %57, ptr %6, align 4, !tbaa !17
  %58 = load i32, ptr %6, align 4, !tbaa !17
  %59 = and i32 %58, -2048
  %60 = icmp eq i32 %59, 55296
  br i1 %60, label %61, label %119

61:                                               ; preds = %47
  call void @llvm.lifetime.start.p0(i64 2, ptr %7) #11
  %62 = load i32, ptr %6, align 4, !tbaa !17
  %63 = and i32 %62, 1024
  %64 = icmp eq i32 %63, 0
  br i1 %64, label %65, label %93

65:                                               ; preds = %61
  %66 = load i32, ptr %5, align 4, !tbaa !17
  %67 = add nsw i32 %66, 1
  %68 = getelementptr inbounds nuw %"class.icu_77::FormattedStringBuilder", ptr %8, i32 0, i32 4
  %69 = load i32, ptr %68, align 4, !tbaa !13
  %70 = icmp ne i32 %67, %69
  br i1 %70, label %71, label %92

71:                                               ; preds = %65
  %72 = call noundef ptr @_ZNK6icu_7722FormattedStringBuilder10getCharPtrEv(ptr noundef nonnull align 8 dereferenceable(136) %8)
  %73 = getelementptr inbounds nuw %"class.icu_77::FormattedStringBuilder", ptr %8, i32 0, i32 3
  %74 = load i32, ptr %73, align 8, !tbaa !12
  %75 = sext i32 %74 to i64
  %76 = getelementptr inbounds i16, ptr %72, i64 %75
  %77 = load i32, ptr %5, align 4, !tbaa !17
  %78 = add nsw i32 %77, 1
  %79 = sext i32 %78 to i64
  %80 = getelementptr inbounds i16, ptr %76, i64 %79
  %81 = load i16, ptr %80, align 2, !tbaa !25
  store i16 %81, ptr %7, align 2, !tbaa !27
  %82 = zext i16 %81 to i32
  %83 = and i32 %82, -1024
  %84 = icmp eq i32 %83, 56320
  br i1 %84, label %85, label %92

85:                                               ; preds = %71
  %86 = load i32, ptr %6, align 4, !tbaa !17
  %87 = shl i32 %86, 10
  %88 = load i16, ptr %7, align 2, !tbaa !27
  %89 = zext i16 %88 to i32
  %90 = add nsw i32 %87, %89
  %91 = sub nsw i32 %90, 56613888
  store i32 %91, ptr %6, align 4, !tbaa !17
  br label %92

92:                                               ; preds = %85, %71, %65
  br label %118

93:                                               ; preds = %61
  %94 = load i32, ptr %5, align 4, !tbaa !17
  %95 = icmp sgt i32 %94, 0
  br i1 %95, label %96, label %117

96:                                               ; preds = %93
  %97 = call noundef ptr @_ZNK6icu_7722FormattedStringBuilder10getCharPtrEv(ptr noundef nonnull align 8 dereferenceable(136) %8)
  %98 = getelementptr inbounds nuw %"class.icu_77::FormattedStringBuilder", ptr %8, i32 0, i32 3
  %99 = load i32, ptr %98, align 8, !tbaa !12
  %100 = sext i32 %99 to i64
  %101 = getelementptr inbounds i16, ptr %97, i64 %100
  %102 = load i32, ptr %5, align 4, !tbaa !17
  %103 = sub nsw i32 %102, 1
  %104 = sext i32 %103 to i64
  %105 = getelementptr inbounds i16, ptr %101, i64 %104
  %106 = load i16, ptr %105, align 2, !tbaa !25
  store i16 %106, ptr %7, align 2, !tbaa !27
  %107 = zext i16 %106 to i32
  %108 = and i32 %107, -1024
  %109 = icmp eq i32 %108, 55296
  br i1 %109, label %110, label %117

110:                                              ; preds = %96
  %111 = load i16, ptr %7, align 2, !tbaa !27
  %112 = zext i16 %111 to i32
  %113 = shl i32 %112, 10
  %114 = load i32, ptr %6, align 4, !tbaa !17
  %115 = add nsw i32 %113, %114
  %116 = sub nsw i32 %115, 56613888
  store i32 %116, ptr %6, align 4, !tbaa !17
  br label %117

117:                                              ; preds = %110, %96, %93
  br label %118

118:                                              ; preds = %117, %92
  call void @llvm.lifetime.end.p0(i64 2, ptr %7) #11
  br label %119

119:                                              ; preds = %118, %47
  br label %120

120:                                              ; preds = %119
  br label %121

121:                                              ; preds = %120
  %122 = load i32, ptr %6, align 4, !tbaa !17
  call void @llvm.lifetime.end.p0(i64 4, ptr %6) #11
  call void @llvm.lifetime.end.p0(i64 4, ptr %5) #11
  ret i32 %122
}