; Function Attrs: mustprogress nofree norecurse nosync nounwind willreturn memory(read, inaccessiblemem: none) uwtable
define noundef range(i32 0, 10559488) i32 @_ZNK6icu_7722FormattedStringBuilder15codePointBeforeEi(ptr noundef nonnull readonly align 8 captures(none) dereferenceable(136) %0, i32 noundef %1) local_unnamed_addr #9 align 2 {
  %3 = load i8, ptr %0, align 8, !tbaa !3, !range !11, !noundef !12
  %4 = trunc nuw i8 %3 to i1
  %5 = getelementptr inbounds nuw i8, ptr %0, i64 8
  %6 = load ptr, ptr %5, align 8
  %7 = select i1 %4, ptr %6, ptr %5
  %8 = getelementptr inbounds nuw i8, ptr %0, i64 128
  %9 = load i32, ptr %8, align 8, !tbaa !9
  %10 = sext i32 %9 to i64
  %11 = getelementptr inbounds i16, ptr %7, i64 %10
  %12 = add nsw i32 %1, -1
  %13 = sext i32 %12 to i64
  %14 = getelementptr inbounds i16, ptr %11, i64 %13
  %15 = load i16, ptr %14, align 2, !tbaa !14
  %16 = and i16 %15, -1024
  %17 = icmp eq i16 %16, -9216
  %18 = icmp sgt i32 %1, 1
  %or.cond = and i1 %18, %17
  br i1 %or.cond, label %19, label %27

19:                                               ; preds = %2
  %20 = zext nneg i32 %1 to i64
  %21 = getelementptr i16, ptr %11, i64 %20
  %22 = getelementptr i8, ptr %21, i64 -4
  %23 = load i16, ptr %22, align 2, !tbaa !14
  %24 = and i16 %23, -1024
  %25 = icmp eq i16 %24, -10240
  %26 = add nsw i32 %1, -2
  %spec.select = select i1 %25, i32 %26, i32 %12
  %.pre = zext nneg i32 %spec.select to i64
  %.phi.trans.insert = getelementptr inbounds nuw i16, ptr %11, i64 %.pre
  %.pre21 = load i16, ptr %.phi.trans.insert, align 2, !tbaa !14
  br label %27

27:                                               ; preds = %19, %2
  %28 = phi i16 [ %.pre21, %19 ], [ %15, %2 ]
  %.018 = phi i32 [ %spec.select, %19 ], [ %12, %2 ]
  %29 = zext i16 %28 to i32
  %30 = and i32 %29, 63488
  %31 = icmp eq i32 %30, 55296
  br i1 %31, label %32, label %64

32:                                               ; preds = %27
  %33 = and i32 %29, 1024
  %34 = icmp eq i32 %33, 0
  br i1 %34, label %35, label %50

35:                                               ; preds = %32
  %36 = add nsw i32 %.018, 1
  %37 = getelementptr inbounds nuw i8, ptr %0, i64 132
  %38 = load i32, ptr %37, align 4, !tbaa !10
  %.not = icmp eq i32 %36, %38
  br i1 %.not, label %64, label %39

39:                                               ; preds = %35
  %40 = sext i32 %36 to i64
  %41 = getelementptr inbounds i16, ptr %11, i64 %40
  %42 = load i16, ptr %41, align 2, !tbaa !14
  %43 = zext i16 %42 to i32
  %44 = and i32 %43, 64512
  %45 = icmp eq i32 %44, 56320
  br i1 %45, label %46, label %64

46:                                               ; preds = %39
  %47 = shl nuw nsw i32 %29, 10
  %48 = add nsw i32 %47, -56613888
  %49 = add nuw nsw i32 %48, %43
  br label %64

50:                                               ; preds = %32
  %51 = icmp sgt i32 %.018, 0
  br i1 %51, label %52, label %64

52:                                               ; preds = %50
  %53 = zext nneg i32 %.018 to i64
  %54 = getelementptr i16, ptr %11, i64 %53
  %55 = getelementptr i8, ptr %54, i64 -2
  %56 = load i16, ptr %55, align 2, !tbaa !14
  %57 = zext i16 %56 to i32
  %58 = and i32 %57, 64512
  %59 = icmp eq i32 %58, 55296
  br i1 %59, label %60, label %64

60:                                               ; preds = %52
  %61 = shl nuw nsw i32 %57, 10
  %62 = add nuw nsw i32 %29, -56613888
  %63 = add nsw i32 %62, %61
  br label %64

64:                                               ; preds = %46, %39, %35, %60, %52, %50, %27
  %.1 = phi i32 [ %29, %27 ], [ %49, %46 ], [ %29, %39 ], [ %29, %35 ], [ %63, %60 ], [ %29, %52 ], [ %29, %50 ]
  ret i32 %.1
}